target datalayout = "e-m:e-p270:32:32-p271:32:32-p272:64:64-i64:64-i128:128-f80:128-n8:16:32:64-S128"
target triple = "x86_64-pc-linux-gnu"

; Function Attrs: nounwind uwtable
define i32 @fileblobScanAndDestroy(ptr noundef %0) #0 {
  %2 = alloca i32, align 4
  %3 = alloca ptr, align 8
  store ptr %0, ptr %3, align 8
  %4 = load ptr, ptr %3, align 8
  %5 = call i32 @fileblobScan(ptr noundef %4)
  switch i32 %5, label %10 [
    i32 1, label %6
    i32 22, label %8
  ]

6:                                                ; preds = %1
  %7 = load ptr, ptr %3, align 8
  call void @fileblobDestructiveDestroy(ptr noundef %7)
  store i32 1, ptr %2, align 4
  br label %12

8:                                                ; preds = %1
  %9 = load ptr, ptr %3, align 8
  call void @fileblobDestructiveDestroy(ptr noundef %9)
  store i32 0, ptr %2, align 4
  br label %12

10:                                               ; preds = %1
  %11 = load ptr, ptr %3, align 8
  call void @fileblobDestroy(ptr noundef %11)
  store i32 0, ptr %2, align 4
  br label %12

12:                                               ; preds = %10, %8, %6
  %13 = load i32, ptr %2, align 4
  ret i32 %13
}