; Function Attrs: nounwind uwtable
define noundef i32 @fileblobScanAndDestroy(ptr noundef %0) local_unnamed_addr #2 {
  %2 = tail call i32 @fileblobScan(ptr noundef %0)
  switch i32 %2, label %5 [
    i32 1, label %3
    i32 22, label %4
  ]

3:                                                ; preds = %1
  tail call void @fileblobDestructiveDestroy(ptr noundef %0)
  br label %6

4:                                                ; preds = %1
  tail call void @fileblobDestructiveDestroy(ptr noundef %0)
  br label %6

5:                                                ; preds = %1
  tail call void @fileblobDestroy(ptr noundef %0)
  br label %6

6:                                                ; preds = %5, %4, %3
  %.0 = phi i32 [ 0, %5 ], [ 0, %4 ], [ 1, %3 ]
  ret i32 %.0
}